target datalayout = "e-m:e-p270:32:32-p271:32:32-p272:64:64-i64:64-i128:128-f80:128-n8:16:32:64-S128"
target triple = "x86_64-unknown-linux-gnu"

%"class.google::protobuf::io::GzipInputStream" = type { %"class.google::protobuf::io::ZeroCopyInputStream", i32, ptr, %struct.z_stream_s, i32, ptr, ptr, i64, i64 }
%"class.google::protobuf::io::ZeroCopyInputStream" = type { ptr }
%struct.z_stream_s = type { ptr, i32, i64, ptr, i32, i64, ptr, ptr, ptr, ptr, ptr, i32, i64, i64 }

; Function Attrs: mustprogress nounwind uwtable
define void @_ZN6google8protobuf2io15GzipInputStream6BackUpEi(ptr noundef nonnull align 8 dereferenceable(176) %this, i32 noundef %count) unnamed_addr #5 align 2 {
entry:
  %this.addr = alloca ptr, align 8
  %count.addr = alloca i32, align 4
  store ptr %this, ptr %this.addr, align 8
  store i32 %count, ptr %count.addr, align 4
  %this1 = load ptr, ptr %this.addr, align 8
  %output_position_ = getelementptr inbounds %"class.google::protobuf::io::GzipInputStream", ptr %this1, i32 0, i32 6
  %0 = load ptr, ptr %output_position_, align 8
  %1 = ptrtoint ptr %0 to i64
  %2 = load i32, ptr %count.addr, align 4
  %conv = sext i32 %2 to i64
  %sub = sub i64 %1, %conv
  %3 = inttoptr i64 %sub to ptr
  %output_position_2 = getelementptr inbounds %"class.google::protobuf::io::GzipInputStream", ptr %this1, i32 0, i32 6
  store ptr %3, ptr %output_position_2, align 8
  ret void
}