; Function Attrs: mustprogress nofree norecurse nosync nounwind willreturn memory(argmem: readwrite) uwtable
define void @_ZN6google8protobuf2io15GzipInputStream6BackUpEi(ptr nocapture noundef nonnull align 8 dereferenceable(176) %this, i32 noundef %count) unnamed_addr #10 align 2 {
entry:
  %output_position_ = getelementptr inbounds i8, ptr %this, i64 152
  %0 = load ptr, ptr %output_position_, align 8
  %1 = ptrtoint ptr %0 to i64
  %conv = sext i32 %count to i64
  %sub = sub i64 %1, %conv
  %2 = inttoptr i64 %sub to ptr
  store ptr %2, ptr %output_position_, align 8
  ret void
}